target datalayout = "e-m:e-p270:32:32-p271:32:32-p272:64:64-i64:64-f80:128-n8:16:32:64-S128"
target triple = "x86_64-pc-linux-gnu"

%struct.st = type { [100 x i8], i32, i32, i8, i8, i32 }

@.str = private unnamed_addr constant [3 x i8] c"%d\00", align 1
@.str.1 = private unnamed_addr constant [15 x i8] c"%s%d%d %c %c%d\00", align 1
@.str.2 = private unnamed_addr constant [4 x i8] c"%s\0A\00", align 1
@.str.3 = private unnamed_addr constant [7 x i8] c"%d\0A%d\0A\00", align 1

; Function Attrs: noinline nounwind uwtable
define dso_local void @main() #0 {
  %1 = alloca i32, align 4
  %2 = alloca i32, align 4
  %3 = alloca [1000 x i32], align 16
  %4 = alloca [1000 x i32], align 16
  %5 = alloca i32, align 4
  %6 = alloca i32, align 4
  %7 = alloca i32, align 4
  %8 = alloca [1000 x %struct.st], align 16
  %9 = bitcast [1000 x i32]* %3 to i8*
  call void @llvm.memset.p0i8.i64(i8* align 16 %9, i8 0, i64 4000, i1 false)
  store i32 0, i32* %5, align 4
  %10 = call i32 (i8*, ...) @__isoc99_scanf(i8* getelementptr inbounds ([3 x i8], [3 x i8]* @.str, i64 0, i64 0), i32* %1)
  store i32 0, i32* %2, align 4
  br label %11

11:                                               ; preds = %43, %0
  %12 = load i32, i32* %2, align 4
  %13 = load i32, i32* %1, align 4
  %14 = icmp slt i32 %12, %13
  br i1 %14, label %15, label %46

15:                                               ; preds = %11
  %16 = call i32 @getchar()
  %17 = load i32, i32* %2, align 4
  %18 = sext i32 %17 to i64
  %19 = getelementptr inbounds [1000 x %struct.st], [1000 x %struct.st]* %8, i64 0, i64 %18
  %20 = getelementptr inbounds %struct.st, %struct.st* %19, i32 0, i32 0
  %21 = getelementptr inbounds [100 x i8], [100 x i8]* %20, i64 0, i64 0
  %22 = load i32, i32* %2, align 4
  %23 = sext i32 %22 to i64
  %24 = getelementptr inbounds [1000 x %struct.st], [1000 x %struct.st]* %8, i64 0, i64 %23
  %25 = getelementptr inbounds %struct.st, %struct.st* %24, i32 0, i32 1
  %26 = load i32, i32* %2, align 4
  %27 = sext i32 %26 to i64
  %28 = getelementptr inbounds [1000 x %struct.st], [1000 x %struct.st]* %8, i64 0, i64 %27
  %29 = getelementptr inbounds %struct.st, %struct.st* %28, i32 0, i32 2
  %30 = load i32, i32* %2, align 4
  %31 = sext i32 %30 to i64
  %32 = getelementptr inbounds [1000 x %struct.st], [1000 x %struct.st]* %8, i64 0, i64 %31
  %33 = getelementptr inbounds %struct.st, %struct.st* %32, i32 0, i32 3
  %34 = load i32, i32* %2, align 4
  %35 = sext i32 %34 to i64
  %36 = getelementptr inbounds [1000 x %struct.st], [1000 x %struct.st]* %8, i64 0, i64 %35
  %37 = getelementptr inbounds %struct.st, %struct.st* %36, i32 0, i32 4
  %38 = load i32, i32* %2, align 4
  %39 = sext i32 %38 to i64
  %40 = getelementptr inbounds [1000 x %struct.st], [1000 x %struct.st]* %8, i64 0, i64 %39
  %41 = getelementptr inbounds %struct.st, %struct.st* %40, i32 0, i32 5
  %42 = call i32 (i8*, ...) @__isoc99_scanf(i8* getelementptr inbounds ([15 x i8], [15 x i8]* @.str.1, i64 0, i64 0), i8* %21, i32* %25, i32* %29, i8* %33, i8* %37, i32* %41)
  br label %43

43:                                               ; preds = %15
  %44 = load i32, i32* %2, align 4
  %45 = add nsw i32 %44, 1
  store i32 %45, i32* %2, align 4
  br label %11

46:                                               ; preds = %11
  store i32 0, i32* %2, align 4
  br label %47

47:                                               ; preds = %172, %46
  %48 = load i32, i32* %2, align 4
  %49 = load i32, i32* %1, align 4
  %50 = icmp slt i32 %48, %49
  br i1 %50, label %51, label %175

51:                                               ; preds = %47
  %52 = load i32, i32* %2, align 4
  %53 = load i32, i32* %2, align 4
  %54 = sext i32 %53 to i64
  %55 = getelementptr inbounds [1000 x i32], [1000 x i32]* %4, i64 0, i64 %54
  store i32 %52, i32* %55, align 4
  %56 = load i32, i32* %2, align 4
  %57 = sext i32 %56 to i64
  %58 = getelementptr inbounds [1000 x %struct.st], [1000 x %struct.st]* %8, i64 0, i64 %57
  %59 = getelementptr inbounds %struct.st, %struct.st* %58, i32 0, i32 1
  %60 = load i32, i32* %59, align 4
  %61 = icmp sgt i32 %60, 80
  br i1 %61, label %62, label %78

62:                                               ; preds = %51
  %63 = load i32, i32* %2, align 4
  %64 = sext i32 %63 to i64
  %65 = getelementptr inbounds [1000 x %struct.st], [1000 x %struct.st]* %8, i64 0, i64 %64
  %66 = getelementptr inbounds %struct.st, %struct.st* %65, i32 0, i32 5
  %67 = load i32, i32* %66, align 4
  %68 = icmp sge i32 %67, 1
  br i1 %68, label %69, label %78

69:                                               ; preds = %62
  %70 = load i32, i32* %2, align 4
  %71 = sext i32 %70 to i64
  %72 = getelementptr inbounds [1000 x i32], [1000 x i32]* %3, i64 0, i64 %71
  %73 = load i32, i32* %72, align 4
  %74 = add nsw i32 %73, 8000
  %75 = load i32, i32* %2, align 4
  %76 = sext i32 %75 to i64
  %77 = getelementptr inbounds [1000 x i32], [1000 x i32]* %3, i64 0, i64 %76
  store i32 %74, i32* %77, align 4
  br label %78

78:                                               ; preds = %69, %62, %51
  %79 = load i32, i32* %2, align 4
  %80 = sext i32 %79 to i64
  %81 = getelementptr inbounds [1000 x %struct.st], [1000 x %struct.st]* %8, i64 0, i64 %80
  %82 = getelementptr inbounds %struct.st, %struct.st* %81, i32 0, i32 1
  %83 = load i32, i32* %82, align 4
  %84 = icmp sgt i32 %83, 85
  br i1 %84, label %85, label %101

85:                                               ; preds = %78
  %86 = load i32, i32* %2, align 4
  %87 = sext i32 %86 to i64
  %88 = getelementptr inbounds [1000 x %struct.st], [1000 x %struct.st]* %8, i64 0, i64 %87
  %89 = getelementptr inbounds %struct.st, %struct.st* %88, i32 0, i32 2
  %90 = load i32, i32* %89, align 4
  %91 = icmp sgt i32 %90, 80
  br i1 %91, label %92, label %101

92:                                               ; preds = %85
  %93 = load i32, i32* %2, align 4
  %94 = sext i32 %93 to i64
  %95 = getelementptr inbounds [1000 x i32], [1000 x i32]* %3, i64 0, i64 %94
  %96 = load i32, i32* %95, align 4
  %97 = add nsw i32 %96, 4000
  %98 = load i32, i32* %2, align 4
  %99 = sext i32 %98 to i64
  %100 = getelementptr inbounds [1000 x i32], [1000 x i32]* %3, i64 0, i64 %99
  store i32 %97, i32* %100, align 4
  br label %101

101:                                              ; preds = %92, %85, %78
  %102 = load i32, i32* %2, align 4
  %103 = sext i32 %102 to i64
  %104 = getelementptr inbounds [1000 x %struct.st], [1000 x %struct.st]* %8, i64 0, i64 %103
  %105 = getelementptr inbounds %struct.st, %struct.st* %104, i32 0, i32 1
  %106 = load i32, i32* %105, align 4
  %107 = icmp sgt i32 %106, 90
  br i1 %107, label %108, label %117

108:                                              ; preds = %101
  %109 = load i32, i32* %2, align 4
  %110 = sext i32 %109 to i64
  %111 = getelementptr inbounds [1000 x i32], [1000 x i32]* %3, i64 0, i64 %110
  %112 = load i32, i32* %111, align 4
  %113 = add nsw i32 %112, 2000
  %114 = load i32, i32* %2, align 4
  %115 = sext i32 %114 to i64
  %116 = getelementptr inbounds [1000 x i32], [1000 x i32]* %3, i64 0, i64 %115
  store i32 %113, i32* %116, align 4
  br label %117

117:                                              ; preds = %108, %101
  %118 = load i32, i32* %2, align 4
  %119 = sext i32 %118 to i64
  %120 = getelementptr inbounds [1000 x %struct.st], [1000 x %struct.st]* %8, i64 0, i64 %119
  %121 = getelementptr inbounds %struct.st, %struct.st* %120, i32 0, i32 1
  %122 = load i32, i32* %121, align 4
  %123 = icmp sgt i32 %122, 85
  br i1 %123, label %124, label %141

124:                                              ; preds = %117
  %125 = load i32, i32* %2, align 4
  %126 = sext i32 %125 to i64
  %127 = getelementptr inbounds [1000 x %struct.st], [1000 x %struct.st]* %8, i64 0, i64 %126
  %128 = getelementptr inbounds %struct.st, %struct.st* %127, i32 0, i32 4
  %129 = load i8, i8* %128, align 1
  %130 = sext i8 %129 to i32
  %131 = icmp eq i32 %130, 89
  br i1 %131, label %132, label %141

132:                                              ; preds = %124
  %133 = load i32, i32* %2, align 4
  %134 = sext i32 %133 to i64
  %135 = getelementptr inbounds [1000 x i32], [1000 x i32]* %3, i64 0, i64 %134
  %136 = load i32, i32* %135, align 4
  %137 = add nsw i32 %136, 1000
  %138 = load i32, i32* %2, align 4
  %139 = sext i32 %138 to i64
  %140 = getelementptr inbounds [1000 x i32], [1000 x i32]* %3, i64 0, i64 %139
  store i32 %137, i32* %140, align 4
  br label %141

141:                                              ; preds = %132, %124, %117
  %142 = load i32, i32* %2, align 4
  %143 = sext i32 %142 to i64
  %144 = getelementptr inbounds [1000 x %struct.st], [1000 x %struct.st]* %8, i64 0, i64 %143
  %145 = getelementptr inbounds %struct.st, %struct.st* %144, i32 0, i32 2
  %146 = load i32, i32* %145, align 4
  %147 = icmp sgt i32 %146, 80
  br i1 %147, label %148, label %165

148:                                              ; preds = %141
  %149 = load i32, i32* %2, align 4
  %150 = sext i32 %149 to i64
  %151 = getelementptr inbounds [1000 x %struct.st], [1000 x %struct.st]* %8, i64 0, i64 %150
  %152 = getelementptr inbounds %struct.st, %struct.st* %151, i32 0, i32 3
  %153 = load i8, i8* %152, align 4
  %154 = sext i8 %153 to i32
  %155 = icmp eq i32 %154, 89
  br i1 %155, label %156, label %165

156:                                              ; preds = %148
  %157 = load i32, i32* %2, align 4
  %158 = sext i32 %157 to i64
  %159 = getelementptr inbounds [1000 x i32], [1000 x i32]* %3, i64 0, i64 %158
  %160 = load i32, i32* %159, align 4
  %161 = add nsw i32 %160, 850
  %162 = load i32, i32* %2, align 4
  %163 = sext i32 %162 to i64
  %164 = getelementptr inbounds [1000 x i32], [1000 x i32]* %3, i64 0, i64 %163
  store i32 %161, i32* %164, align 4
  br label %165

165:                                              ; preds = %156, %148, %141
  %166 = load i32, i32* %5, align 4
  %167 = load i32, i32* %2, align 4
  %168 = sext i32 %167 to i64
  %169 = getelementptr inbounds [1000 x i32], [1000 x i32]* %3, i64 0, i64 %168
  %170 = load i32, i32* %169, align 4
  %171 = add nsw i32 %166, %170
  store i32 %171, i32* %5, align 4
  br label %172

172:                                              ; preds = %165
  %173 = load i32, i32* %2, align 4
  %174 = add nsw i32 %173, 1
  store i32 %174, i32* %2, align 4
  br label %47

175:                                              ; preds = %47
  %176 = load i32, i32* %1, align 4
  %177 = sub nsw i32 %176, 1
  store i32 %177, i32* %2, align 4
  br label %178

178:                                              ; preds = %237, %175
  %179 = load i32, i32* %2, align 4
  %180 = icmp sgt i32 %179, 0
  br i1 %180, label %181, label %240

181:                                              ; preds = %178
  store i32 0, i32* %6, align 4
  br label %182

182:                                              ; preds = %233, %181
  %183 = load i32, i32* %6, align 4
  %184 = load i32, i32* %2, align 4
  %185 = icmp slt i32 %183, %184
  br i1 %185, label %186, label %236

186:                                              ; preds = %182
  %187 = load i32, i32* %6, align 4
  %188 = sext i32 %187 to i64
  %189 = getelementptr inbounds [1000 x i32], [1000 x i32]* %3, i64 0, i64 %188
  %190 = load i32, i32* %189, align 4
  %191 = load i32, i32* %6, align 4
  %192 = add nsw i32 %191, 1
  %193 = sext i32 %192 to i64
  %194 = getelementptr inbounds [1000 x i32], [1000 x i32]* %3, i64 0, i64 %193
  %195 = load i32, i32* %194, align 4
  %196 = icmp slt i32 %190, %195
  br i1 %196, label %197, label %232

197:                                              ; preds = %186
  %198 = load i32, i32* %6, align 4
  %199 = add nsw i32 %198, 1
  %200 = sext i32 %199 to i64
  %201 = getelementptr inbounds [1000 x i32], [1000 x i32]* %3, i64 0, i64 %200
  %202 = load i32, i32* %201, align 4
  store i32 %202, i32* %7, align 4
  %203 = load i32, i32* %6, align 4
  %204 = sext i32 %203 to i64
  %205 = getelementptr inbounds [1000 x i32], [1000 x i32]* %3, i64 0, i64 %204
  %206 = load i32, i32* %205, align 4
  %207 = load i32, i32* %6, align 4
  %208 = add nsw i32 %207, 1
  %209 = sext i32 %208 to i64
  %210 = getelementptr inbounds [1000 x i32], [1000 x i32]* %3, i64 0, i64 %209
  store i32 %206, i32* %210, align 4
  %211 = load i32, i32* %7, align 4
  %212 = load i32, i32* %6, align 4
  %213 = sext i32 %212 to i64
  %214 = getelementptr inbounds [1000 x i32], [1000 x i32]* %3, i64 0, i64 %213
  store i32 %211, i32* %214, align 4
  %215 = load i32, i32* %6, align 4
  %216 = add nsw i32 %215, 1
  %217 = sext i32 %216 to i64
  %218 = getelementptr inbounds [1000 x i32], [1000 x i32]* %4, i64 0, i64 %217
  %219 = load i32, i32* %218, align 4
  store i32 %219, i32* %7, align 4
  %220 = load i32, i32* %6, align 4
  %221 = sext i32 %220 to i64
  %222 = getelementptr inbounds [1000 x i32], [1000 x i32]* %4, i64 0, i64 %221
  %223 = load i32, i32* %222, align 4
  %224 = load i32, i32* %6, align 4
  %225 = add nsw i32 %224, 1
  %226 = sext i32 %225 to i64
  %227 = getelementptr inbounds [1000 x i32], [1000 x i32]* %4, i64 0, i64 %226
  store i32 %223, i32* %227, align 4
  %228 = load i32, i32* %7, align 4
  %229 = load i32, i32* %6, align 4
  %230 = sext i32 %229 to i64
  %231 = getelementptr inbounds [1000 x i32], [1000 x i32]* %4, i64 0, i64 %230
  store i32 %228, i32* %231, align 4
  br label %232

232:                                              ; preds = %197, %186
  br label %233

233:                                              ; preds = %232
  %234 = load i32, i32* %6, align 4
  %235 = add nsw i32 %234, 1
  store i32 %235, i32* %6, align 4
  br label %182

236:                                              ; preds = %182
  br label %237

237:                                              ; preds = %236
  %238 = load i32, i32* %2, align 4
  %239 = add nsw i32 %238, -1
  store i32 %239, i32* %2, align 4
  br label %178

240:                                              ; preds = %178
  %241 = getelementptr inbounds [1000 x i32], [1000 x i32]* %4, i64 0, i64 0
  %242 = load i32, i32* %241, align 16
  %243 = sext i32 %242 to i64
  %244 = getelementptr inbounds [1000 x %struct.st], [1000 x %struct.st]* %8, i64 0, i64 %243
  %245 = getelementptr inbounds %struct.st, %struct.st* %244, i32 0, i32 0
  %246 = getelementptr inbounds [100 x i8], [100 x i8]* %245, i64 0, i64 0
  %247 = call i32 (i8*, ...) @printf(i8* getelementptr inbounds ([4 x i8], [4 x i8]* @.str.2, i64 0, i64 0), i8* %246)
  %248 = getelementptr inbounds [1000 x i32], [1000 x i32]* %3, i64 0, i64 0
  %249 = load i32, i32* %248, align 16
  %250 = load i32, i32* %5, align 4
  %251 = call i32 (i8*, ...) @printf(i8* getelementptr inbounds ([7 x i8], [7 x i8]* @.str.3, i64 0, i64 0), i32 %249, i32 %250)
  ret void
}